target datalayout = "e-m:e-p270:32:32-p271:32:32-p272:64:64-i64:64-i128:128-f80:128-n8:16:32:64-S128"
target triple = "x86_64-pc-linux-gnu"

; Function Attrs: nounwind uwtable
define ptr @Gia_ManRexPreprocess(ptr noundef %0) #0 {
  %2 = alloca ptr, align 8
  %3 = alloca ptr, align 8
  %4 = alloca i32, align 4
  %5 = alloca i32, align 4
  store ptr %0, ptr %2, align 8
  %6 = load ptr, ptr %2, align 8
  %7 = call i64 @strlen(ptr noundef %6) #9
  %8 = mul i64 %7, 2
  %9 = add i64 %8, 10
  %10 = call noalias ptr @calloc(i64 noundef %9, i64 noundef 1) #11
  store ptr %10, ptr %3, align 8
  store i32 0, ptr %5, align 4
  %11 = load ptr, ptr %3, align 8
  %12 = load i32, ptr %5, align 4
  %13 = add nsw i32 %12, 1
  store i32 %13, ptr %5, align 4
  %14 = sext i32 %12 to i64
  %15 = getelementptr inbounds i8, ptr %11, i64 %14
  store i8 40, ptr %15, align 1
  %16 = load ptr, ptr %3, align 8
  %17 = load i32, ptr %5, align 4
  %18 = add nsw i32 %17, 1
  store i32 %18, ptr %5, align 4
  %19 = sext i32 %17 to i64
  %20 = getelementptr inbounds i8, ptr %16, i64 %19
  store i8 40, ptr %20, align 1
  store i32 0, ptr %4, align 4
  br label %21

21:                                               ; preds = %101, %1
  %22 = load ptr, ptr %2, align 8
  %23 = load i32, ptr %4, align 4
  %24 = sext i32 %23 to i64
  %25 = getelementptr inbounds i8, ptr %22, i64 %24
  %26 = load i8, ptr %25, align 1
  %27 = icmp ne i8 %26, 0
  br i1 %27, label %28, label %104

28:                                               ; preds = %21
  %29 = load ptr, ptr %2, align 8
  %30 = load i32, ptr %4, align 4
  %31 = sext i32 %30 to i64
  %32 = getelementptr inbounds i8, ptr %29, i64 %31
  %33 = load i8, ptr %32, align 1
  %34 = sext i8 %33 to i32
  %35 = icmp eq i32 %34, 40
  br i1 %35, label %36, label %42

36:                                               ; preds = %28
  %37 = load ptr, ptr %3, align 8
  %38 = load i32, ptr %5, align 4
  %39 = add nsw i32 %38, 1
  store i32 %39, ptr %5, align 4
  %40 = sext i32 %38 to i64
  %41 = getelementptr inbounds i8, ptr %37, i64 %40
  store i8 40, ptr %41, align 1
  br label %57

42:                                               ; preds = %28
  %43 = load ptr, ptr %2, align 8
  %44 = load i32, ptr %4, align 4
  %45 = sext i32 %44 to i64
  %46 = getelementptr inbounds i8, ptr %43, i64 %45
  %47 = load i8, ptr %46, align 1
  %48 = sext i8 %47 to i32
  %49 = icmp eq i32 %48, 41
  br i1 %49, label %50, label %56

50:                                               ; preds = %42
  %51 = load ptr, ptr %3, align 8
  %52 = load i32, ptr %5, align 4
  %53 = add nsw i32 %52, 1
  store i32 %53, ptr %5, align 4
  %54 = sext i32 %52 to i64
  %55 = getelementptr inbounds i8, ptr %51, i64 %54
  store i8 41, ptr %55, align 1
  br label %56

56:                                               ; preds = %50, %42
  br label %57

57:                                               ; preds = %56, %36
  %58 = load ptr, ptr %2, align 8
  %59 = load i32, ptr %4, align 4
  %60 = sext i32 %59 to i64
  %61 = getelementptr inbounds i8, ptr %58, i64 %60
  %62 = load i8, ptr %61, align 1
  %63 = sext i8 %62 to i32
  %64 = icmp ne i32 %63, 32
  br i1 %64, label %65, label %100

65:                                               ; preds = %57
  %66 = load ptr, ptr %2, align 8
  %67 = load i32, ptr %4, align 4
  %68 = sext i32 %67 to i64
  %69 = getelementptr inbounds i8, ptr %66, i64 %68
  %70 = load i8, ptr %69, align 1
  %71 = sext i8 %70 to i32
  %72 = icmp ne i32 %71, 9
  br i1 %72, label %73, label %100

73:                                               ; preds = %65
  %74 = load ptr, ptr %2, align 8
  %75 = load i32, ptr %4, align 4
  %76 = sext i32 %75 to i64
  %77 = getelementptr inbounds i8, ptr %74, i64 %76
  %78 = load i8, ptr %77, align 1
  %79 = sext i8 %78 to i32
  %80 = icmp ne i32 %79, 10
  br i1 %80, label %81, label %100

81:                                               ; preds = %73
  %82 = load ptr, ptr %2, align 8
  %83 = load i32, ptr %4, align 4
  %84 = sext i32 %83 to i64
  %85 = getelementptr inbounds i8, ptr %82, i64 %84
  %86 = load i8, ptr %85, align 1
  %87 = sext i8 %86 to i32
  %88 = icmp ne i32 %87, 13
  br i1 %88, label %89, label %100

89:                                               ; preds = %81
  %90 = load ptr, ptr %2, align 8
  %91 = load i32, ptr %4, align 4
  %92 = sext i32 %91 to i64
  %93 = getelementptr inbounds i8, ptr %90, i64 %92
  %94 = load i8, ptr %93, align 1
  %95 = load ptr, ptr %3, align 8
  %96 = load i32, ptr %5, align 4
  %97 = add nsw i32 %96, 1
  store i32 %97, ptr %5, align 4
  %98 = sext i32 %96 to i64
  %99 = getelementptr inbounds i8, ptr %95, i64 %98
  store i8 %94, ptr %99, align 1
  br label %100

100:                                              ; preds = %89, %81, %73, %65, %57
  br label %101

101:                                              ; preds = %100
  %102 = load i32, ptr %4, align 4
  %103 = add nsw i32 %102, 1
  store i32 %103, ptr %4, align 4
  br label %21, !llvm.loop !15

104:                                              ; preds = %21
  %105 = load ptr, ptr %3, align 8
  %106 = load i32, ptr %5, align 4
  %107 = add nsw i32 %106, 1
  store i32 %107, ptr %5, align 4
  %108 = sext i32 %106 to i64
  %109 = getelementptr inbounds i8, ptr %105, i64 %108
  store i8 41, ptr %109, align 1
  %110 = load ptr, ptr %3, align 8
  %111 = load i32, ptr %5, align 4
  %112 = add nsw i32 %111, 1
  store i32 %112, ptr %5, align 4
  %113 = sext i32 %111 to i64
  %114 = getelementptr inbounds i8, ptr %110, i64 %113
  store i8 41, ptr %114, align 1
  %115 = load ptr, ptr %3, align 8
  %116 = load i32, ptr %5, align 4
  %117 = add nsw i32 %116, 1
  store i32 %117, ptr %5, align 4
  %118 = sext i32 %116 to i64
  %119 = getelementptr inbounds i8, ptr %115, i64 %118
  store i8 0, ptr %119, align 1
  %120 = load ptr, ptr %3, align 8
  ret ptr %120
}