; Function Attrs: nofree nounwind memory(write, argmem: read, inaccessiblemem: readwrite) uwtable
define noalias noundef ptr @Gia_ManRexPreprocess(ptr noundef readonly captures(none) %0) local_unnamed_addr #5 {
  %2 = tail call i64 @strlen(ptr noundef nonnull dereferenceable(1) %0) #23
  %3 = shl i64 %2, 1
  %4 = add i64 %3, 10
  %5 = tail call noalias ptr @calloc(i64 noundef %4, i64 noundef 1) #27
  store i8 40, ptr %5, align 1
  %6 = getelementptr inbounds nuw i8, ptr %5, i64 1
  store i8 40, ptr %6, align 1
  br label %7

7:                                                ; preds = %16, %1
  %indvars.iv = phi i64 [ %indvars.iv.next, %16 ], [ 0, %1 ]
  %.0 = phi i32 [ %.2, %16 ], [ 2, %1 ]
  %8 = getelementptr inbounds nuw i8, ptr %0, i64 %indvars.iv
  %9 = load i8, ptr %8, align 1
  switch i8 %9, label %.thread [
    i8 0, label %17
    i8 40, label %.thread.sink.split
    i8 41, label %.thread.sink.split
    i8 32, label %16
    i8 9, label %16
    i8 10, label %16
    i8 13, label %16
  ]

.thread.sink.split:                               ; preds = %7, %7
  %10 = add nsw i32 %.0, 1
  %11 = sext i32 %.0 to i64
  %12 = getelementptr inbounds i8, ptr %5, i64 %11
  store i8 %9, ptr %12, align 1
  br label %.thread

.thread:                                          ; preds = %.thread.sink.split, %7
  %.143 = phi i32 [ %.0, %7 ], [ %10, %.thread.sink.split ]
  %13 = add nsw i32 %.143, 1
  %14 = sext i32 %.143 to i64
  %15 = getelementptr inbounds i8, ptr %5, i64 %14
  store i8 %9, ptr %15, align 1
  br label %16

16:                                               ; preds = %7, %7, %7, %7, %.thread
  %.2 = phi i32 [ %13, %.thread ], [ %.0, %7 ], [ %.0, %7 ], [ %.0, %7 ], [ %.0, %7 ]
  %indvars.iv.next = add nuw nsw i64 %indvars.iv, 1
  br label %7, !llvm.loop !15

17:                                               ; preds = %7
  %18 = sext i32 %.0 to i64
  %19 = getelementptr inbounds i8, ptr %5, i64 %18
  store i8 41, ptr %19, align 1
  %20 = getelementptr i8, ptr %19, i64 1
  store i8 41, ptr %20, align 1
  %21 = getelementptr i8, ptr %19, i64 2
  store i8 0, ptr %21, align 1
  ret ptr %5
}